; Function Attrs: nofree norecurse nosync nounwind memory(write, argmem: readwrite, inaccessiblemem: none) uwtable
define void @Ptngc_write_pattern(ptr noundef captures(none) %0, i32 noundef %1, i32 noundef %2, ptr noundef captures(none) %3) local_unnamed_addr #6 {
  %5 = load i32, ptr %0, align 4, !tbaa !8
  %6 = shl i32 %5, %2
  store i32 %6, ptr %0, align 4, !tbaa !8
  %7 = getelementptr inbounds nuw i8, ptr %0, i64 4
  %8 = load i32, ptr %7, align 4, !tbaa !3
  %9 = add nsw i32 %8, %2
  store i32 %9, ptr %7, align 4, !tbaa !3
  %.not17 = icmp eq i32 %2, 0
  br i1 %.not17, label %._crit_edge, label %.lr.ph.preheader

.lr.ph.preheader:                                 ; preds = %4
  %10 = add nsw i32 %2, -1
  %11 = shl nuw i32 1, %10
  br label %.lr.ph

.lr.ph:                                           ; preds = %.lr.ph.preheader, %16
  %12 = phi i32 [ %17, %16 ], [ %6, %.lr.ph.preheader ]
  %.020 = phi i32 [ %20, %16 ], [ %11, %.lr.ph.preheader ]
  %.01419 = phi i32 [ %19, %16 ], [ 1, %.lr.ph.preheader ]
  %.01518 = phi i32 [ %18, %16 ], [ %2, %.lr.ph.preheader ]
  %13 = and i32 %.01419, %1
  %.not16 = icmp eq i32 %13, 0
  br i1 %.not16, label %16, label %14

14:                                               ; preds = %.lr.ph
  %15 = or i32 %12, %.020
  store i32 %15, ptr %0, align 4, !tbaa !8
  br label %16

16:                                               ; preds = %14, %.lr.ph
  %17 = phi i32 [ %15, %14 ], [ %12, %.lr.ph ]
  %18 = add nsw i32 %.01518, -1
  %19 = shl i32 %.01419, 1
  %20 = lshr i32 %.020, 1
  %.not = icmp eq i32 %18, 0
  br i1 %.not, label %._crit_edge, label %.lr.ph, !llvm.loop !15

._crit_edge:                                      ; preds = %16, %4
  %.pre.i = phi i32 [ %6, %4 ], [ %17, %16 ]
  %21 = icmp sgt i32 %9, 7
  br i1 %21, label %.lr.ph.preheader.i, label %Ptngc_out8bits.exit

.lr.ph.preheader.i:                               ; preds = %._crit_edge
  %.pre9.i = load ptr, ptr %3, align 8, !tbaa !9
  br label %.lr.ph.i

.lr.ph.i:                                         ; preds = %.lr.ph.i, %.lr.ph.preheader.i
  %22 = phi ptr [ %31, %.lr.ph.i ], [ %.pre9.i, %.lr.ph.preheader.i ]
  %23 = phi i32 [ %33, %.lr.ph.i ], [ %.pre.i, %.lr.ph.preheader.i ]
  %24 = phi i32 [ %34, %.lr.ph.i ], [ %9, %.lr.ph.preheader.i ]
  %25 = add nsw i32 %24, -8
  store i32 %25, ptr %7, align 4, !tbaa !3
  %26 = shl i32 255, %25
  %27 = xor i32 %26, -1
  %28 = lshr i32 %23, %25
  %29 = trunc i32 %28 to i8
  store i8 %29, ptr %22, align 1, !tbaa !12
  %30 = load ptr, ptr %3, align 8, !tbaa !9
  %31 = getelementptr inbounds nuw i8, ptr %30, i64 1
  store ptr %31, ptr %3, align 8, !tbaa !9
  %32 = load i32, ptr %0, align 4, !tbaa !8
  %33 = and i32 %32, %27
  store i32 %33, ptr %0, align 4, !tbaa !8
  %34 = load i32, ptr %7, align 4, !tbaa !3
  %35 = icmp sgt i32 %34, 7
  br i1 %35, label %.lr.ph.i, label %Ptngc_out8bits.exit, !llvm.loop !13

Ptngc_out8bits.exit:                              ; preds = %.lr.ph.i, %._crit_edge
  ret void
}